(dp0
S'test_account'
p1
(imendeley_client
MendeleyAccount
p2
(dp3
S'access_token'
p4
ccopy_reg
_reconstructor
p5
(coauth2
Token
p6
c__builtin__
object
p7
Ntp8
Rp9
(dp10
S'secret'
p11
V91b333ee8dbb6a1ddae79d657d57b817
p12
sS'key'
p13
V77687197ecf4eb689371d64a60256de30515b2816
p14
sbsbs.